; Function Attrs: nounwind uwtable
define noundef zeroext i1 @html_normalise_map_form_data(ptr noundef %0, ptr noundef %1, ptr noundef %2, ptr noundef %3, ptr noundef %4, ptr noundef %5) local_unnamed_addr #0 {
  %7 = alloca %struct.m_area_tag, align 8
  call void @llvm.lifetime.start.p0(i64 32, ptr nonnull %7) #17
  %8 = getelementptr inbounds nuw i8, ptr %1, i64 88
  %9 = load i64, ptr %8, align 8, !tbaa !47
  %10 = getelementptr inbounds nuw i8, ptr %7, i64 8
  store i64 %9, ptr %10, align 8, !tbaa !28
  %11 = getelementptr inbounds nuw i8, ptr %7, i64 16
  store i64 0, ptr %11, align 8, !tbaa !51
  %12 = getelementptr inbounds nuw i8, ptr %7, i64 24
  store ptr %1, ptr %12, align 8, !tbaa !52
  %13 = call fastcc zeroext i1 @cli_html_normalise(ptr noundef %0, ptr noundef %7, ptr noundef %2, ptr noundef %3, ptr noundef %4, ptr noundef %5)
  call void @llvm.lifetime.end.p0(i64 32, ptr nonnull %7) #17
  ret i1 %13
}